target datalayout = "e-m:e-p270:32:32-p271:32:32-p272:64:64-i64:64-i128:128-f80:128-n8:16:32:64-S128"
target triple = "x86_64-unknown-linux-gnu"

%struct.ASN1_ITEM_st = type { i8, i64, ptr, i64, ptr, i64, ptr }
%struct.SXNET_st = type { ptr, ptr }
%struct.SXNET_ID_st = type { ptr, ptr }

@SXNET_it = hidden constant %struct.ASN1_ITEM_st { i8 1, i64 16, ptr @SXNET_seq_tt, i64 2, ptr null, i64 16, ptr @.str.1 }, align 8
@SXNETID_it = hidden constant %struct.ASN1_ITEM_st { i8 1, i64 16, ptr @SXNETID_seq_tt, i64 2, ptr null, i64 16, ptr @.str }, align 8
@.str.2 = private unnamed_addr constant [128 x i8] c"generated/home/dtcxzyw/WorkSpace/Projects/compilers/llvm-opt-benchmark/bench/libquic/libquic/boringssl/crypto/x509v3/v3_sxnet.c\00", align 1

; Function Attrs: nounwind uwtable
define hidden void @SXNET_free(ptr noundef %a) #0 {
entry:
  %a.addr = alloca ptr, align 8
  store ptr %a, ptr %a.addr, align 8
  %0 = load ptr, ptr %a.addr, align 8
  call void @ASN1_item_free(ptr noundef %0, ptr noundef @SXNET_it)
  ret void
}

; Function Attrs: nounwind uwtable
define hidden void @SXNETID_free(ptr noundef %a) #0 {
entry:
  %a.addr = alloca ptr, align 8
  store ptr %a, ptr %a.addr, align 8
  %0 = load ptr, ptr %a.addr, align 8
  call void @ASN1_item_free(ptr noundef %0, ptr noundef @SXNETID_it)
  ret void
}

; Function Attrs: nounwind uwtable
define hidden ptr @SXNETID_new() #0 {
entry:
  %call = call ptr @ASN1_item_new(ptr noundef @SXNETID_it)
  ret ptr %call
}

; Function Attrs: nounwind uwtable
define hidden ptr @SXNET_get_id_INTEGER(ptr noundef %sx, ptr noundef %zone) #0 {
entry:
  %retval = alloca ptr, align 8
  %sx.addr = alloca ptr, align 8
  %zone.addr = alloca ptr, align 8
  %id = alloca ptr, align 8
  %i = alloca i64, align 8
  store ptr %sx, ptr %sx.addr, align 8
  store ptr %zone, ptr %zone.addr, align 8
  store i64 0, ptr %i, align 8
  br label %for.cond

for.cond:                                         ; preds = %for.inc, %entry
  %0 = load i64, ptr %i, align 8
  %1 = load ptr, ptr %sx.addr, align 8
  %ids = getelementptr inbounds %struct.SXNET_st, ptr %1, i32 0, i32 1
  %2 = load ptr, ptr %ids, align 8
  %call = call i64 @sk_num(ptr noundef %2)
  %cmp = icmp ult i64 %0, %call
  br i1 %cmp, label %for.body, label %for.end

for.body:                                         ; preds = %for.cond
  %3 = load ptr, ptr %sx.addr, align 8
  %ids1 = getelementptr inbounds %struct.SXNET_st, ptr %3, i32 0, i32 1
  %4 = load ptr, ptr %ids1, align 8
  %5 = load i64, ptr %i, align 8
  %call2 = call ptr @sk_value(ptr noundef %4, i64 noundef %5)
  store ptr %call2, ptr %id, align 8
  %6 = load ptr, ptr %id, align 8
  %zone3 = getelementptr inbounds %struct.SXNET_ID_st, ptr %6, i32 0, i32 0
  %7 = load ptr, ptr %zone3, align 8
  %8 = load ptr, ptr %zone.addr, align 8
  %call4 = call i32 @ASN1_STRING_cmp(ptr noundef %7, ptr noundef %8)
  %tobool = icmp ne i32 %call4, 0
  br i1 %tobool, label %if.end, label %if.then

if.then:                                          ; preds = %for.body
  %9 = load ptr, ptr %id, align 8
  %user = getelementptr inbounds %struct.SXNET_ID_st, ptr %9, i32 0, i32 1
  %10 = load ptr, ptr %user, align 8
  store ptr %10, ptr %retval, align 8
  br label %return

if.end:                                           ; preds = %for.body
  br label %for.inc

for.inc:                                          ; preds = %if.end
  %11 = load i64, ptr %i, align 8
  %inc = add i64 %11, 1
  store i64 %inc, ptr %i, align 8
  br label %for.cond, !llvm.loop !10

for.end:                                          ; preds = %for.cond
  store ptr null, ptr %retval, align 8
  br label %return

return:                                           ; preds = %for.end, %if.then
  %12 = load ptr, ptr %retval, align 8
  ret ptr %12
}

; Function Attrs: nounwind uwtable
define hidden ptr @SXNET_new() #0 {
entry:
  %call = call ptr @ASN1_item_new(ptr noundef @SXNET_it)
  ret ptr %call
}

; Function Attrs: nounwind uwtable
define hidden i32 @SXNET_add_id_INTEGER(ptr noundef %psx, ptr noundef %zone, ptr noundef %user, i32 noundef %userlen) #0 {
entry:
  %retval = alloca i32, align 4
  %psx.addr = alloca ptr, align 8
  %zone.addr = alloca ptr, align 8
  %user.addr = alloca ptr, align 8
  %userlen.addr = alloca i32, align 4
  %sx = alloca ptr, align 8
  %id = alloca ptr, align 8
  store ptr %psx, ptr %psx.addr, align 8
  store ptr %zone, ptr %zone.addr, align 8
  store ptr %user, ptr %user.addr, align 8
  store i32 %userlen, ptr %userlen.addr, align 4
  store ptr null, ptr %sx, align 8
  store ptr null, ptr %id, align 8
  %0 = load ptr, ptr %psx.addr, align 8
  %tobool = icmp ne ptr %0, null
  br i1 %tobool, label %lor.lhs.false, label %if.then

lor.lhs.false:                                    ; preds = %entry
  %1 = load ptr, ptr %zone.addr, align 8
  %tobool1 = icmp ne ptr %1, null
  br i1 %tobool1, label %lor.lhs.false2, label %if.then

lor.lhs.false2:                                   ; preds = %lor.lhs.false
  %2 = load ptr, ptr %user.addr, align 8
  %tobool3 = icmp ne ptr %2, null
  br i1 %tobool3, label %if.end, label %if.then

if.then:                                          ; preds = %lor.lhs.false2, %lor.lhs.false, %entry
  call void @ERR_put_error(i32 noundef 20, i32 noundef 0, i32 noundef 124, ptr noundef @.str.2, i32 noundef 193)
  store i32 0, ptr %retval, align 4
  br label %return

if.end:                                           ; preds = %lor.lhs.false2
  %3 = load i32, ptr %userlen.addr, align 4
  %cmp = icmp eq i32 %3, -1
  br i1 %cmp, label %if.then4, label %if.end5

if.then4:                                         ; preds = %if.end
  %4 = load ptr, ptr %user.addr, align 8
  %call = call i64 @strlen(ptr noundef %4) #5
  %conv = trunc i64 %call to i32
  store i32 %conv, ptr %userlen.addr, align 4
  br label %if.end5

if.end5:                                          ; preds = %if.then4, %if.end
  %5 = load i32, ptr %userlen.addr, align 4
  %cmp6 = icmp sgt i32 %5, 64
  br i1 %cmp6, label %if.then8, label %if.end9

if.then8:                                         ; preds = %if.end5
  call void @ERR_put_error(i32 noundef 20, i32 noundef 0, i32 noundef 162, ptr noundef @.str.2, i32 noundef 199)
  store i32 0, ptr %retval, align 4
  br label %return

if.end9:                                          ; preds = %if.end5
  %6 = load ptr, ptr %psx.addr, align 8
  %7 = load ptr, ptr %6, align 8
  %tobool10 = icmp ne ptr %7, null
  br i1 %tobool10, label %if.else, label %if.then11

if.then11:                                        ; preds = %if.end9
  %call12 = call ptr @SXNET_new()
  store ptr %call12, ptr %sx, align 8
  %tobool13 = icmp ne ptr %call12, null
  br i1 %tobool13, label %if.end15, label %if.then14

if.then14:                                        ; preds = %if.then11
  br label %err

if.end15:                                         ; preds = %if.then11
  %8 = load ptr, ptr %sx, align 8
  %version = getelementptr inbounds %struct.SXNET_st, ptr %8, i32 0, i32 0
  %9 = load ptr, ptr %version, align 8
  %call16 = call i32 @ASN1_INTEGER_set(ptr noundef %9, i64 noundef 0)
  %tobool17 = icmp ne i32 %call16, 0
  br i1 %tobool17, label %if.end19, label %if.then18

if.then18:                                        ; preds = %if.end15
  br label %err

if.end19:                                         ; preds = %if.end15
  %10 = load ptr, ptr %sx, align 8
  %11 = load ptr, ptr %psx.addr, align 8
  store ptr %10, ptr %11, align 8
  br label %if.end20

if.else:                                          ; preds = %if.end9
  %12 = load ptr, ptr %psx.addr, align 8
  %13 = load ptr, ptr %12, align 8
  store ptr %13, ptr %sx, align 8
  br label %if.end20

if.end20:                                         ; preds = %if.else, %if.end19
  %14 = load ptr, ptr %sx, align 8
  %15 = load ptr, ptr %zone.addr, align 8
  %call21 = call ptr @SXNET_get_id_INTEGER(ptr noundef %14, ptr noundef %15)
  %tobool22 = icmp ne ptr %call21, null
  br i1 %tobool22, label %if.then23, label %if.end24

if.then23:                                        ; preds = %if.end20
  call void @ERR_put_error(i32 noundef 20, i32 noundef 0, i32 noundef 107, ptr noundef @.str.2, i32 noundef 211)
  store i32 0, ptr %retval, align 4
  br label %return

if.end24:                                         ; preds = %if.end20
  %call25 = call ptr @SXNETID_new()
  store ptr %call25, ptr %id, align 8
  %tobool26 = icmp ne ptr %call25, null
  br i1 %tobool26, label %if.end28, label %if.then27

if.then27:                                        ; preds = %if.end24
  br label %err

if.end28:                                         ; preds = %if.end24
  %16 = load i32, ptr %userlen.addr, align 4
  %cmp29 = icmp eq i32 %16, -1
  br i1 %cmp29, label %if.then31, label %if.end34

if.then31:                                        ; preds = %if.end28
  %17 = load ptr, ptr %user.addr, align 8
  %call32 = call i64 @strlen(ptr noundef %17) #5
  %conv33 = trunc i64 %call32 to i32
  store i32 %conv33, ptr %userlen.addr, align 4
  br label %if.end34

if.end34:                                         ; preds = %if.then31, %if.end28
  %18 = load ptr, ptr %id, align 8
  %user35 = getelementptr inbounds %struct.SXNET_ID_st, ptr %18, i32 0, i32 1
  %19 = load ptr, ptr %user35, align 8
  %20 = load ptr, ptr %user.addr, align 8
  %21 = load i32, ptr %userlen.addr, align 4
  %call36 = call i32 @ASN1_STRING_set(ptr noundef %19, ptr noundef %20, i32 noundef %21)
  %tobool37 = icmp ne i32 %call36, 0
  br i1 %tobool37, label %if.end39, label %if.then38

if.then38:                                        ; preds = %if.end34
  br label %err

if.end39:                                         ; preds = %if.end34
  %22 = load ptr, ptr %sx, align 8
  %ids = getelementptr inbounds %struct.SXNET_st, ptr %22, i32 0, i32 1
  %23 = load ptr, ptr %ids, align 8
  %24 = load ptr, ptr %id, align 8
  %call40 = call i64 @sk_push(ptr noundef %23, ptr noundef %24)
  %tobool41 = icmp ne i64 %call40, 0
  br i1 %tobool41, label %if.end43, label %if.then42

if.then42:                                        ; preds = %if.end39
  br label %err

if.end43:                                         ; preds = %if.end39
  %25 = load ptr, ptr %zone.addr, align 8
  %26 = load ptr, ptr %id, align 8
  %zone44 = getelementptr inbounds %struct.SXNET_ID_st, ptr %26, i32 0, i32 0
  store ptr %25, ptr %zone44, align 8
  store i32 1, ptr %retval, align 4
  br label %return

err:                                              ; preds = %if.then42, %if.then38, %if.then27, %if.then18, %if.then14
  call void @ERR_put_error(i32 noundef 20, i32 noundef 0, i32 noundef 65, ptr noundef @.str.2, i32 noundef 228)
  %27 = load ptr, ptr %id, align 8
  call void @SXNETID_free(ptr noundef %27)
  %28 = load ptr, ptr %sx, align 8
  call void @SXNET_free(ptr noundef %28)
  %29 = load ptr, ptr %psx.addr, align 8
  store ptr null, ptr %29, align 8
  store i32 0, ptr %retval, align 4
  br label %return

return:                                           ; preds = %err, %if.end43, %if.then23, %if.then8, %if.then
  %30 = load i32, ptr %retval, align 4
  ret i32 %30
}