; Function Attrs: nounwind uwtable
define hidden range(i32 0, 2) i32 @SXNET_add_id_INTEGER(ptr noundef %psx, ptr noundef %zone, ptr noundef %user, i32 noundef %userlen) local_unnamed_addr #0 {
entry:
  %tobool = icmp ne ptr %psx, null
  %tobool1 = icmp ne ptr %zone, null
  %or.cond = and i1 %tobool, %tobool1
  %tobool3 = icmp ne ptr %user, null
  %or.cond1 = and i1 %or.cond, %tobool3
  br i1 %or.cond1, label %if.end, label %if.then

if.then:                                          ; preds = %entry
  tail call void @ERR_put_error(i32 noundef 20, i32 noundef 0, i32 noundef 124, ptr noundef nonnull @.str.2, i32 noundef 193) #4
  br label %return

if.end:                                           ; preds = %entry
  %cmp = icmp eq i32 %userlen, -1
  br i1 %cmp, label %if.then4, label %if.end5

if.then4:                                         ; preds = %if.end
  %call = tail call i64 @strlen(ptr noundef nonnull dereferenceable(1) %user) #5
  %conv = trunc i64 %call to i32
  br label %if.end5

if.end5:                                          ; preds = %if.then4, %if.end
  %userlen.addr.0 = phi i32 [ %conv, %if.then4 ], [ %userlen, %if.end ]
  %cmp6 = icmp sgt i32 %userlen.addr.0, 64
  br i1 %cmp6, label %if.then8, label %if.end9

if.then8:                                         ; preds = %if.end5
  tail call void @ERR_put_error(i32 noundef 20, i32 noundef 0, i32 noundef 162, ptr noundef nonnull @.str.2, i32 noundef 199) #4
  br label %return

if.end9:                                          ; preds = %if.end5
  %0 = load ptr, ptr %psx, align 8
  %tobool10.not = icmp eq ptr %0, null
  br i1 %tobool10.not, label %if.then11, label %if.end20

if.then11:                                        ; preds = %if.end9
  %call.i = tail call ptr @ASN1_item_new(ptr noundef nonnull @SXNET_it) #4
  %tobool13.not = icmp eq ptr %call.i, null
  br i1 %tobool13.not, label %err, label %if.end15

if.end15:                                         ; preds = %if.then11
  %1 = load ptr, ptr %call.i, align 8
  %call16 = tail call i32 @ASN1_INTEGER_set(ptr noundef %1, i64 noundef 0) #4
  %tobool17.not = icmp eq i32 %call16, 0
  br i1 %tobool17.not, label %err, label %if.end19

if.end19:                                         ; preds = %if.end15
  store ptr %call.i, ptr %psx, align 8
  br label %if.end20

if.end20:                                         ; preds = %if.end9, %if.end19
  %sx.1 = phi ptr [ %call.i, %if.end19 ], [ %0, %if.end9 ]
  %ids.i = getelementptr inbounds nuw i8, ptr %sx.1, i64 8
  %2 = load ptr, ptr %ids.i, align 8
  %call5.i = tail call i64 @sk_num(ptr noundef %2) #4
  %cmp6.not.i = icmp eq i64 %call5.i, 0
  br i1 %cmp6.not.i, label %if.end24, label %for.body.i

for.cond.i:                                       ; preds = %for.body.i
  %inc.i = add nuw i64 %i.07.i, 1
  %3 = load ptr, ptr %ids.i, align 8
  %call.i21 = tail call i64 @sk_num(ptr noundef %3) #4
  %cmp.i = icmp ult i64 %inc.i, %call.i21
  br i1 %cmp.i, label %for.body.i, label %if.end24, !llvm.loop !10

for.body.i:                                       ; preds = %if.end20, %for.cond.i
  %i.07.i = phi i64 [ %inc.i, %for.cond.i ], [ 0, %if.end20 ]
  %4 = load ptr, ptr %ids.i, align 8
  %call2.i = tail call ptr @sk_value(ptr noundef %4, i64 noundef %i.07.i) #4
  %5 = load ptr, ptr %call2.i, align 8
  %call4.i = tail call i32 @ASN1_STRING_cmp(ptr noundef %5, ptr noundef nonnull %zone) #4
  %tobool.not.i = icmp eq i32 %call4.i, 0
  br i1 %tobool.not.i, label %SXNET_get_id_INTEGER.exit, label %for.cond.i

SXNET_get_id_INTEGER.exit:                        ; preds = %for.body.i
  %user.i = getelementptr inbounds nuw i8, ptr %call2.i, i64 8
  %6 = load ptr, ptr %user.i, align 8
  %tobool22.not = icmp eq ptr %6, null
  br i1 %tobool22.not, label %if.end24, label %if.then23

if.then23:                                        ; preds = %SXNET_get_id_INTEGER.exit
  tail call void @ERR_put_error(i32 noundef 20, i32 noundef 0, i32 noundef 107, ptr noundef nonnull @.str.2, i32 noundef 211) #4
  br label %return

if.end24:                                         ; preds = %for.cond.i, %if.end20, %SXNET_get_id_INTEGER.exit
  %call.i22 = tail call ptr @ASN1_item_new(ptr noundef nonnull @SXNETID_it) #4
  %tobool26.not = icmp eq ptr %call.i22, null
  br i1 %tobool26.not, label %err, label %if.end28

if.end28:                                         ; preds = %if.end24
  %cmp29 = icmp eq i32 %userlen.addr.0, -1
  br i1 %cmp29, label %if.then31, label %if.end34

if.then31:                                        ; preds = %if.end28
  %call32 = tail call i64 @strlen(ptr noundef nonnull dereferenceable(1) %user) #5
  %conv33 = trunc i64 %call32 to i32
  br label %if.end34

if.end34:                                         ; preds = %if.then31, %if.end28
  %userlen.addr.1 = phi i32 [ %conv33, %if.then31 ], [ %userlen.addr.0, %if.end28 ]
  %user35 = getelementptr inbounds nuw i8, ptr %call.i22, i64 8
  %7 = load ptr, ptr %user35, align 8
  %call36 = tail call i32 @ASN1_STRING_set(ptr noundef %7, ptr noundef nonnull %user, i32 noundef %userlen.addr.1) #4
  %tobool37.not = icmp eq i32 %call36, 0
  br i1 %tobool37.not, label %err, label %if.end39

if.end39:                                         ; preds = %if.end34
  %8 = load ptr, ptr %ids.i, align 8
  %call40 = tail call i64 @sk_push(ptr noundef %8, ptr noundef nonnull %call.i22) #4
  %tobool41.not = icmp eq i64 %call40, 0
  br i1 %tobool41.not, label %err, label %if.end43

if.end43:                                         ; preds = %if.end39
  store ptr %zone, ptr %call.i22, align 8
  br label %return

err:                                              ; preds = %if.end39, %if.end34, %if.end24, %if.end15, %if.then11
  %sx.0 = phi ptr [ %sx.1, %if.end39 ], [ %sx.1, %if.end34 ], [ %sx.1, %if.end24 ], [ %call.i, %if.end15 ], [ null, %if.then11 ]
  %id.0 = phi ptr [ %call.i22, %if.end39 ], [ %call.i22, %if.end34 ], [ null, %if.end24 ], [ null, %if.end15 ], [ null, %if.then11 ]
  tail call void @ERR_put_error(i32 noundef 20, i32 noundef 0, i32 noundef 65, ptr noundef nonnull @.str.2, i32 noundef 228) #4
  tail call void @ASN1_item_free(ptr noundef %id.0, ptr noundef nonnull @SXNETID_it) #4
  tail call void @ASN1_item_free(ptr noundef %sx.0, ptr noundef nonnull @SXNET_it) #4
  store ptr null, ptr %psx, align 8
  br label %return

return:                                           ; preds = %err, %if.end43, %if.then23, %if.then8, %if.then
  %retval.0 = phi i32 [ 0, %if.then8 ], [ 0, %if.then23 ], [ 1, %if.end43 ], [ 0, %err ], [ 0, %if.then ]
  ret i32 %retval.0
}